#include <math.h>
#include <stdio.h>
#include <stdlib.h>
#include <string.h>
#include <iostream>
using namespace std;


int main()
{
    int n;
    cin>>n;
    int i,j,k;
    for(i=3;i<=n/2;i=i+2)
       {
           for(j=2;j<=i;j++)
             {
                 if(i%j==0)  {break;}
             }
             if(j==i)//????????i???
               {
                   for(k=2;k<=n-i;k++)
                      {
                        if((n-i)%k==0)  {break;}
                      }
                    if(k==n-i)//???n-i???
                        {
                            cout<<i<<" "<<n-i<<endl;
                        }
               }
       }
       return 0;
}
